; Function Attrs: mustprogress uwtable
define void @_ZN3g2o7csparse7CSparse10freeFactorEv(ptr noundef nonnull readonly align 8 captures(none) dereferenceable(8) %0) local_unnamed_addr #0 align 2 {
  %2 = load ptr, ptr %0, align 8, !tbaa !14
  %3 = getelementptr inbounds nuw i8, ptr %2, i64 32
  %4 = load ptr, ptr %3, align 8, !tbaa !16
  %.not = icmp eq ptr %4, null
  br i1 %.not, label %9, label %5

5:                                                ; preds = %1
  %6 = tail call ptr @cs_di_nfree(ptr noundef nonnull %4)
  %7 = load ptr, ptr %0, align 8, !tbaa !14
  %8 = getelementptr inbounds nuw i8, ptr %7, i64 32
  store ptr null, ptr %8, align 8, !tbaa !16
  br label %9

9:                                                ; preds = %5, %1
  ret void
}